target datalayout = "e-m:e-p270:32:32-p271:32:32-p272:64:64-i64:64-i128:128-f80:128-n8:16:32:64-S128"
target triple = "x86_64-pc-linux-gnu"

%struct.ossl_decoder_st = type { %struct.ossl_endecode_base_st, ptr, ptr, ptr, ptr, ptr, ptr, ptr, ptr, ptr }
%struct.ossl_endecode_base_st = type { ptr, i32, ptr, ptr, ptr, %struct.CRYPTO_REF_COUNT }
%struct.CRYPTO_REF_COUNT = type { i32 }
%struct.ossl_decoder_ctx_st = type { ptr, ptr, i32, ptr, ptr, ptr, ptr, %struct.ossl_passphrase_data_st, i32 }
%struct.ossl_passphrase_data_st = type { i32, %union.anon, i8, ptr, i64 }
%union.anon = type { %struct.anon }
%struct.anon = type { ptr, i64 }

@.str = private unnamed_addr constant [47 x i8] c"../openssl/crypto/encode_decode/decoder_meth.c\00", align 1
@__func__.OSSL_DECODER_CTX_set_params = private unnamed_addr constant [28 x i8] c"OSSL_DECODER_CTX_set_params\00", align 1

; Function Attrs: inlinehint nounwind uwtable
define internal ptr @sk_OSSL_DECODER_INSTANCE_value(ptr noundef %0, i32 noundef %1) #2 {
  %3 = alloca ptr, align 8
  %4 = alloca i32, align 4
  store ptr %0, ptr %3, align 8, !tbaa !80
  store i32 %1, ptr %4, align 4, !tbaa !8
  %5 = load ptr, ptr %3, align 8, !tbaa !80
  %6 = load i32, ptr %4, align 4, !tbaa !8
  %7 = call ptr @OPENSSL_sk_value(ptr noundef %5, i32 noundef %6)
  ret ptr %7
}

; Function Attrs: nounwind uwtable
define i32 @OSSL_DECODER_CTX_set_params(ptr noundef %0, ptr noundef %1) #0 {
  %3 = alloca i32, align 4
  %4 = alloca ptr, align 8
  %5 = alloca ptr, align 8
  %6 = alloca i32, align 4
  %7 = alloca i64, align 8
  %8 = alloca i64, align 8
  %9 = alloca i32, align 4
  %10 = alloca ptr, align 8
  %11 = alloca ptr, align 8
  %12 = alloca ptr, align 8
  store ptr %0, ptr %4, align 8, !tbaa !69
  store ptr %1, ptr %5, align 8, !tbaa !67
  call void @llvm.lifetime.start.p0(i64 4, ptr %6) #7
  store i32 1, ptr %6, align 4, !tbaa !8
  call void @llvm.lifetime.start.p0(i64 8, ptr %7) #7
  call void @llvm.lifetime.start.p0(i64 8, ptr %8) #7
  %13 = load ptr, ptr %4, align 8, !tbaa !69
  %14 = icmp ne ptr %13, null
  %15 = zext i1 %14 to i32
  %16 = icmp ne i32 %15, 0
  %17 = xor i1 %16, true
  %18 = xor i1 %17, true
  %19 = zext i1 %18 to i32
  %20 = sext i32 %19 to i64
  %21 = call i64 @llvm.expect.i64(i64 %20, i64 1)
  %22 = icmp ne i64 %21, 0
  br i1 %22, label %24, label %23

23:                                               ; preds = %2
  call void @ERR_new()
  call void @ERR_set_debug(ptr noundef @.str, i32 noundef 648, ptr noundef @__func__.OSSL_DECODER_CTX_set_params)
  call void (i32, i32, ptr, ...) @ERR_set_error(i32 noundef 60, i32 noundef 786690, ptr noundef null)
  store i32 0, ptr %3, align 4
  store i32 1, ptr %9, align 4
  br label %75

24:                                               ; preds = %2
  %25 = load ptr, ptr %4, align 8, !tbaa !69
  %26 = getelementptr inbounds nuw %struct.ossl_decoder_ctx_st, ptr %25, i32 0, i32 3
  %27 = load ptr, ptr %26, align 8, !tbaa !71
  %28 = icmp eq ptr %27, null
  br i1 %28, label %29, label %30

29:                                               ; preds = %24
  store i32 1, ptr %3, align 4
  store i32 1, ptr %9, align 4
  br label %75

30:                                               ; preds = %24
  %31 = load ptr, ptr %4, align 8, !tbaa !69
  %32 = call i32 @OSSL_DECODER_CTX_get_num_decoders(ptr noundef %31)
  %33 = sext i32 %32 to i64
  store i64 %33, ptr %8, align 8, !tbaa !76
  store i64 0, ptr %7, align 8, !tbaa !76
  br label %34

34:                                               ; preds = %70, %30
  %35 = load i64, ptr %7, align 8, !tbaa !76
  %36 = load i64, ptr %8, align 8, !tbaa !76
  %37 = icmp ult i64 %35, %36
  br i1 %37, label %38, label %73

38:                                               ; preds = %34
  call void @llvm.lifetime.start.p0(i64 8, ptr %10) #7
  %39 = load ptr, ptr %4, align 8, !tbaa !69
  %40 = getelementptr inbounds nuw %struct.ossl_decoder_ctx_st, ptr %39, i32 0, i32 3
  %41 = load ptr, ptr %40, align 8, !tbaa !71
  %42 = load i64, ptr %7, align 8, !tbaa !76
  %43 = trunc i64 %42 to i32
  %44 = call ptr @sk_OSSL_DECODER_INSTANCE_value(ptr noundef %41, i32 noundef %43)
  store ptr %44, ptr %10, align 8, !tbaa !77
  call void @llvm.lifetime.start.p0(i64 8, ptr %11) #7
  %45 = load ptr, ptr %10, align 8, !tbaa !77
  %46 = call ptr @OSSL_DECODER_INSTANCE_get_decoder(ptr noundef %45)
  store ptr %46, ptr %11, align 8, !tbaa !3
  call void @llvm.lifetime.start.p0(i64 8, ptr %12) #7
  %47 = load ptr, ptr %10, align 8, !tbaa !77
  %48 = call ptr @OSSL_DECODER_INSTANCE_get_decoder_ctx(ptr noundef %47)
  store ptr %48, ptr %12, align 8, !tbaa !3
  %49 = load ptr, ptr %12, align 8, !tbaa !3
  %50 = icmp eq ptr %49, null
  br i1 %50, label %56, label %51

51:                                               ; preds = %38
  %52 = load ptr, ptr %11, align 8, !tbaa !3
  %53 = getelementptr inbounds nuw %struct.ossl_decoder_st, ptr %52, i32 0, i32 5
  %54 = load ptr, ptr %53, align 8, !tbaa !40
  %55 = icmp eq ptr %54, null
  br i1 %55, label %56, label %57

56:                                               ; preds = %51, %38
  store i32 4, ptr %9, align 4
  br label %67

57:                                               ; preds = %51
  %58 = load ptr, ptr %11, align 8, !tbaa !3
  %59 = getelementptr inbounds nuw %struct.ossl_decoder_st, ptr %58, i32 0, i32 5
  %60 = load ptr, ptr %59, align 8, !tbaa !40
  %61 = load ptr, ptr %12, align 8, !tbaa !3
  %62 = load ptr, ptr %5, align 8, !tbaa !67
  %63 = call i32 %60(ptr noundef %61, ptr noundef %62)
  %64 = icmp ne i32 %63, 0
  br i1 %64, label %66, label %65

65:                                               ; preds = %57
  store i32 0, ptr %6, align 4, !tbaa !8
  br label %66

66:                                               ; preds = %65, %57
  store i32 0, ptr %9, align 4
  br label %67

67:                                               ; preds = %66, %56
  call void @llvm.lifetime.end.p0(i64 8, ptr %12) #7
  call void @llvm.lifetime.end.p0(i64 8, ptr %11) #7
  call void @llvm.lifetime.end.p0(i64 8, ptr %10) #7
  %68 = load i32, ptr %9, align 4
  switch i32 %68, label %77 [
    i32 0, label %69
    i32 4, label %70
  ]

69:                                               ; preds = %67
  br label %70

70:                                               ; preds = %69, %67
  %71 = load i64, ptr %7, align 8, !tbaa !76
  %72 = add i64 %71, 1
  store i64 %72, ptr %7, align 8, !tbaa !76
  br label %34, !llvm.loop !79

73:                                               ; preds = %34
  %74 = load i32, ptr %6, align 4, !tbaa !8
  store i32 %74, ptr %3, align 4
  store i32 1, ptr %9, align 4
  br label %75

75:                                               ; preds = %73, %29, %23
  call void @llvm.lifetime.end.p0(i64 8, ptr %8) #7
  call void @llvm.lifetime.end.p0(i64 8, ptr %7) #7
  call void @llvm.lifetime.end.p0(i64 4, ptr %6) #7
  %76 = load i32, ptr %3, align 4
  ret i32 %76

77:                                               ; preds = %67
  unreachable
}