; Function Attrs: nounwind uwtable
define range(i32 0, 2) i32 @OSSL_DECODER_CTX_set_params(ptr noundef %0, ptr noundef %1) local_unnamed_addr #2 {
  %.not = icmp eq ptr %0, null
  br i1 %.not, label %3, label %4, !prof !48

3:                                                ; preds = %2
  tail call void @ERR_new() #8
  tail call void @ERR_set_debug(ptr noundef nonnull @.str, i32 noundef 648, ptr noundef nonnull @__func__.OSSL_DECODER_CTX_set_params) #8
  tail call void (i32, i32, ptr, ...) @ERR_set_error(i32 noundef 60, i32 noundef 786690, ptr noundef null) #8
  br label %.loopexit

4:                                                ; preds = %2
  %5 = getelementptr inbounds nuw i8, ptr %0, i64 24
  %6 = load ptr, ptr %5, align 8, !tbaa !55
  %7 = icmp eq ptr %6, null
  br i1 %7, label %.loopexit, label %8

8:                                                ; preds = %4
  %9 = tail call i32 @OSSL_DECODER_CTX_get_num_decoders(ptr noundef nonnull %0) #8
  %10 = sext i32 %9 to i64
  %.not24 = icmp eq i32 %9, 0
  br i1 %.not24, label %.loopexit, label %.lr.ph

.lr.ph:                                           ; preds = %8, %23
  %.01623 = phi i32 [ %.1, %23 ], [ 1, %8 ]
  %.01722 = phi i64 [ %24, %23 ], [ 0, %8 ]
  %11 = load ptr, ptr %5, align 8, !tbaa !55
  %12 = trunc i64 %.01722 to i32
  %13 = tail call ptr @OPENSSL_sk_value(ptr noundef %11, i32 noundef %12) #8
  %14 = tail call ptr @OSSL_DECODER_INSTANCE_get_decoder(ptr noundef %13) #8
  %15 = tail call ptr @OSSL_DECODER_INSTANCE_get_decoder_ctx(ptr noundef %13) #8
  %16 = icmp eq ptr %15, null
  br i1 %16, label %23, label %17

17:                                               ; preds = %.lr.ph
  %18 = getelementptr inbounds nuw i8, ptr %14, i64 80
  %19 = load ptr, ptr %18, align 8, !tbaa !31
  %20 = icmp eq ptr %19, null
  br i1 %20, label %23, label %21

21:                                               ; preds = %17
  %22 = tail call i32 %19(ptr noundef nonnull %15, ptr noundef %1) #8
  %.not21 = icmp eq i32 %22, 0
  %spec.select = select i1 %.not21, i32 0, i32 %.01623
  br label %23

23:                                               ; preds = %.lr.ph, %17, %21
  %.1 = phi i32 [ %spec.select, %21 ], [ %.01623, %17 ], [ %.01623, %.lr.ph ]
  %24 = add nuw i64 %.01722, 1
  %exitcond.not = icmp eq i64 %24, %10
  br i1 %exitcond.not, label %.loopexit, label %.lr.ph, !llvm.loop !60

.loopexit:                                        ; preds = %23, %8, %4, %3
  %.0 = phi i32 [ 0, %3 ], [ 1, %4 ], [ 1, %8 ], [ %.1, %23 ]
  ret i32 %.0
}